target datalayout = "e-m:e-p270:32:32-p271:32:32-p272:64:64-i64:64-i128:128-f80:128-n8:16:32:64-S128"
target triple = "x86_64-pc-linux-gnu"

%struct.IDAMemRec = type { ptr, double, ptr, ptr, i32, double, double, ptr, i32, i32, ptr, ptr, i32, i32, i32, ptr, ptr, i32, i32, double, double, ptr, i32, i32, i32, i32, ptr, ptr, i32, ptr, ptr, ptr, i32, double, i32, i32, double, ptr, ptr, ptr, i32, ptr, ptr, i32, i32, i32, double, ptr, ptr, ptr, [6 x ptr], [6 x double], [6 x double], [6 x double], [6 x double], [6 x double], ptr, ptr, ptr, ptr, ptr, ptr, ptr, ptr, ptr, ptr, ptr, ptr, ptr, ptr, ptr, ptr, ptr, [6 x ptr], ptr, ptr, ptr, ptr, [6 x ptr], ptr, ptr, ptr, ptr, ptr, ptr, ptr, ptr, ptr, ptr, ptr, ptr, ptr, ptr, ptr, ptr, [6 x ptr], ptr, ptr, ptr, ptr, ptr, double, ptr, ptr, i32, i32, i32, i32, i32, i32, i32, i32, double, double, double, i32, double, i32, i32, i32, i32, i32, double, double, double, double, double, double, double, double, double, double, double, double, double, double, double, double, double, i32, i32, i32, i32, i64, double, double, double, double, double, double, double, double, double, i64, i64, i64, i64, i64, i64, i64, i64, i64, i64, i64, i64, i64, i64, i64, i64, i64, i64, i64, i64, i64, i64, i64, i64, i64, i64, double, i32, i32, i32, i32, i32, i32, i32, i32, i32, i32, i32, i32, i32, ptr, i32, ptr, i32, ptr, i32, ptr, ptr, ptr, ptr, ptr, ptr, i32, i32, ptr, ptr, ptr, ptr, ptr, ptr, ptr, double, i32, i32, ptr, i32, ptr, ptr, double, double, double, ptr, ptr, ptr, double, double, i32, i32, i64, ptr, i32, ptr, [5 x double], ptr, ptr, i32, ptr, i32 }

@.str = private unnamed_addr constant [114 x i8] c"generated/home/dtcxzyw/WorkSpace/Projects/compilers/llvm-opt-benchmark/bench/sundials/sundials/src/idas/idas_io.c\00", align 1
@.str.1 = private unnamed_addr constant [24 x i8] c"ida_mem = NULL illegal.\00", align 1
@.str.21 = private unnamed_addr constant [52 x i8] c"Illegal attempt to call before calling IDASensInit.\00", align 1
@__func__.IDASetQuadSensErrCon = private unnamed_addr constant [21 x i8] c"IDASetQuadSensErrCon\00", align 1

; Function Attrs: nounwind uwtable
define i32 @IDASetQuadSensErrCon(ptr noundef %0, i32 noundef %1) #0 {
  %3 = alloca i32, align 4
  %4 = alloca ptr, align 8
  %5 = alloca i32, align 4
  %6 = alloca ptr, align 8
  store ptr %0, ptr %4, align 8
  store i32 %1, ptr %5, align 4
  %7 = load ptr, ptr %4, align 8
  %8 = icmp eq ptr %7, null
  br i1 %8, label %9, label %10

9:                                                ; preds = %2
  call void (ptr, i32, i32, ptr, ptr, ptr, ...) @IDAProcessError(ptr noundef null, i32 noundef -20, i32 noundef 1077, ptr noundef @__func__.IDASetQuadSensErrCon, ptr noundef @.str, ptr noundef @.str.1)
  store i32 -20, ptr %3, align 4
  br label %29

10:                                               ; preds = %2
  %11 = load ptr, ptr %4, align 8
  store ptr %11, ptr %6, align 8
  %12 = load ptr, ptr %6, align 8
  %13 = getelementptr inbounds %struct.IDAMemRec, ptr %12, i32 0, i32 189
  %14 = load i32, ptr %13, align 4
  %15 = icmp eq i32 %14, 0
  br i1 %15, label %16, label %18

16:                                               ; preds = %10
  %17 = load ptr, ptr %6, align 8
  call void (ptr, i32, i32, ptr, ptr, ptr, ...) @IDAProcessError(ptr noundef %17, i32 noundef -40, i32 noundef 1085, ptr noundef @__func__.IDASetQuadSensErrCon, ptr noundef @.str, ptr noundef @.str.21)
  store i32 -40, ptr %3, align 4
  br label %29

18:                                               ; preds = %10
  %19 = load ptr, ptr %6, align 8
  %20 = getelementptr inbounds %struct.IDAMemRec, ptr %19, i32 0, i32 192
  %21 = load i32, ptr %20, align 8
  %22 = icmp eq i32 %21, 0
  br i1 %22, label %23, label %25

23:                                               ; preds = %18
  %24 = load ptr, ptr %6, align 8
  call void (ptr, i32, i32, ptr, ptr, ptr, ...) @IDAProcessError(ptr noundef %24, i32 noundef -50, i32 noundef 1093, ptr noundef @__func__.IDASetQuadSensErrCon, ptr noundef @.str, ptr noundef @.str.21)
  store i32 -50, ptr %3, align 4
  br label %29

25:                                               ; preds = %18
  %26 = load i32, ptr %5, align 4
  %27 = load ptr, ptr %6, align 8
  %28 = getelementptr inbounds %struct.IDAMemRec, ptr %27, i32 0, i32 44
  store i32 %26, ptr %28, align 4
  store i32 0, ptr %3, align 4
  br label %29

29:                                               ; preds = %25, %23, %16, %9
  %30 = load i32, ptr %3, align 4
  ret i32 %30
}