; Function Attrs: nounwind uwtable
define range(i32 -50, 1) i32 @IDASetQuadSensErrCon(ptr noundef %0, i32 noundef %1) local_unnamed_addr #0 {
  %3 = icmp eq ptr %0, null
  br i1 %3, label %4, label %5

4:                                                ; preds = %2
  tail call void (ptr, i32, i32, ptr, ptr, ptr, ...) @IDAProcessError(ptr noundef null, i32 noundef -20, i32 noundef 1077, ptr noundef nonnull @__func__.IDASetQuadSensErrCon, ptr noundef nonnull @.str, ptr noundef nonnull @.str.1) #9
  br label %17

5:                                                ; preds = %2
  %6 = getelementptr inbounds nuw i8, ptr %0, i64 1716
  %7 = load i32, ptr %6, align 4
  %8 = icmp eq i32 %7, 0
  br i1 %8, label %9, label %10

9:                                                ; preds = %5
  tail call void (ptr, i32, i32, ptr, ptr, ptr, ...) @IDAProcessError(ptr noundef nonnull %0, i32 noundef -40, i32 noundef 1085, ptr noundef nonnull @__func__.IDASetQuadSensErrCon, ptr noundef nonnull @.str, ptr noundef nonnull @.str.21) #9
  br label %17

10:                                               ; preds = %5
  %11 = getelementptr inbounds nuw i8, ptr %0, i64 1728
  %12 = load i32, ptr %11, align 8
  %13 = icmp eq i32 %12, 0
  br i1 %13, label %14, label %15

14:                                               ; preds = %10
  tail call void (ptr, i32, i32, ptr, ptr, ptr, ...) @IDAProcessError(ptr noundef nonnull %0, i32 noundef -50, i32 noundef 1093, ptr noundef nonnull @__func__.IDASetQuadSensErrCon, ptr noundef nonnull @.str, ptr noundef nonnull @.str.21) #9
  br label %17

15:                                               ; preds = %10
  %16 = getelementptr inbounds nuw i8, ptr %0, i64 300
  store i32 %1, ptr %16, align 4
  br label %17

17:                                               ; preds = %15, %14, %9, %4
  %.0 = phi i32 [ -20, %4 ], [ -40, %9 ], [ -50, %14 ], [ 0, %15 ]
  ret i32 %.0
}